; Function Attrs: nounwind uwtable
define ptr @l_Lean_Compiler_LCNF_InferType_compatibleTypes(ptr noundef %0, ptr noundef %1, ptr noundef %2, ptr noundef %3, ptr noundef %4, ptr noundef %5, ptr noundef %6, ptr noundef %7) local_unnamed_addr #0 {
  %9 = ptrtoint ptr %1 to i64
  %10 = and i64 %9, 1
  %.not = icmp eq i64 %10, 0
  br i1 %.not, label %11, label %lean_inc.exit27

11:                                               ; preds = %8
  %.val.i = load i32, ptr %1, align 4, !tbaa !4
  %12 = icmp sgt i32 %.val.i, 0
  br i1 %12, label %13, label %15, !prof !9

13:                                               ; preds = %11
  %14 = add nuw i32 %.val.i, 1
  store i32 %14, ptr %1, align 4, !tbaa !4
  br label %lean_inc.exit27

15:                                               ; preds = %11
  %.not.i46 = icmp eq i32 %.val.i, 0
  br i1 %.not.i46, label %lean_inc.exit27, label %16

16:                                               ; preds = %15
  tail call void @lean_inc_ref_cold(ptr noundef nonnull %1) #4
  br label %lean_inc.exit27

lean_inc.exit27:                                  ; preds = %16, %15, %13, %8
  %17 = ptrtoint ptr %0 to i64
  %18 = and i64 %17, 1
  %.not50 = icmp eq i64 %18, 0
  br i1 %.not50, label %19, label %lean_inc.exit

19:                                               ; preds = %lean_inc.exit27
  %.val.i47 = load i32, ptr %0, align 4, !tbaa !4
  %20 = icmp sgt i32 %.val.i47, 0
  br i1 %20, label %21, label %23, !prof !9

21:                                               ; preds = %19
  %22 = add nuw i32 %.val.i47, 1
  store i32 %22, ptr %0, align 4, !tbaa !4
  br label %lean_inc.exit

23:                                               ; preds = %19
  %.not.i48 = icmp eq i32 %.val.i47, 0
  br i1 %.not.i48, label %lean_inc.exit, label %24

24:                                               ; preds = %23
  tail call void @lean_inc_ref_cold(ptr noundef nonnull %0) #4
  br label %lean_inc.exit

lean_inc.exit:                                    ; preds = %24, %23, %21, %lean_inc.exit27
  %25 = tail call zeroext i8 @l_Lean_Compiler_LCNF_compatibleTypesQuick(ptr noundef %0, ptr noundef %1)
  %26 = icmp eq i8 %25, 0
  br i1 %26, label %27, label %29

27:                                               ; preds = %lean_inc.exit
  %28 = tail call ptr @l_Lean_Compiler_LCNF_InferType_compatibleTypesFull(ptr noundef %0, ptr noundef %1, ptr noundef %2, ptr noundef %3, ptr noundef %4, ptr noundef %5, ptr noundef %6, ptr noundef %7)
  br label %95

29:                                               ; preds = %lean_inc.exit
  %30 = ptrtoint ptr %6 to i64
  %31 = and i64 %30, 1
  %.not51 = icmp eq i64 %31, 0
  br i1 %.not51, label %32, label %lean_dec.exit33

32:                                               ; preds = %29
  %33 = load i32, ptr %6, align 4, !tbaa !4
  %34 = icmp sgt i32 %33, 1
  br i1 %34, label %35, label %37, !prof !9

35:                                               ; preds = %32
  %36 = add nsw i32 %33, -1
  store i32 %36, ptr %6, align 4, !tbaa !4
  br label %lean_dec.exit33

37:                                               ; preds = %32
  %.not.i = icmp eq i32 %33, 0
  br i1 %.not.i, label %lean_dec.exit33, label %38

38:                                               ; preds = %37
  tail call void @lean_dec_ref_cold(ptr noundef nonnull %6) #4
  br label %lean_dec.exit33

lean_dec.exit33:                                  ; preds = %38, %37, %35, %29
  %39 = ptrtoint ptr %5 to i64
  %40 = and i64 %39, 1
  %.not52 = icmp eq i64 %40, 0
  br i1 %.not52, label %41, label %lean_dec.exit32

41:                                               ; preds = %lean_dec.exit33
  %42 = load i32, ptr %5, align 4, !tbaa !4
  %43 = icmp sgt i32 %42, 1
  br i1 %43, label %44, label %46, !prof !9

44:                                               ; preds = %41
  %45 = add nsw i32 %42, -1
  store i32 %45, ptr %5, align 4, !tbaa !4
  br label %lean_dec.exit32

46:                                               ; preds = %41
  %.not.i34 = icmp eq i32 %42, 0
  br i1 %.not.i34, label %lean_dec.exit32, label %47

47:                                               ; preds = %46
  tail call void @lean_dec_ref_cold(ptr noundef nonnull %5) #4
  br label %lean_dec.exit32

lean_dec.exit32:                                  ; preds = %47, %46, %44, %lean_dec.exit33
  %48 = ptrtoint ptr %4 to i64
  %49 = and i64 %48, 1
  %.not53 = icmp eq i64 %49, 0
  br i1 %.not53, label %50, label %lean_dec.exit31

50:                                               ; preds = %lean_dec.exit32
  %51 = load i32, ptr %4, align 4, !tbaa !4
  %52 = icmp sgt i32 %51, 1
  br i1 %52, label %53, label %55, !prof !9

53:                                               ; preds = %50
  %54 = add nsw i32 %51, -1
  store i32 %54, ptr %4, align 4, !tbaa !4
  br label %lean_dec.exit31

55:                                               ; preds = %50
  %.not.i36 = icmp eq i32 %51, 0
  br i1 %.not.i36, label %lean_dec.exit31, label %56

56:                                               ; preds = %55
  tail call void @lean_dec_ref_cold(ptr noundef nonnull %4) #4
  br label %lean_dec.exit31

lean_dec.exit31:                                  ; preds = %56, %55, %53, %lean_dec.exit32
  %57 = ptrtoint ptr %3 to i64
  %58 = and i64 %57, 1
  %.not54 = icmp eq i64 %58, 0
  br i1 %.not54, label %59, label %lean_dec.exit30

59:                                               ; preds = %lean_dec.exit31
  %60 = load i32, ptr %3, align 4, !tbaa !4
  %61 = icmp sgt i32 %60, 1
  br i1 %61, label %62, label %64, !prof !9

62:                                               ; preds = %59
  %63 = add nsw i32 %60, -1
  store i32 %63, ptr %3, align 4, !tbaa !4
  br label %lean_dec.exit30

64:                                               ; preds = %59
  %.not.i38 = icmp eq i32 %60, 0
  br i1 %.not.i38, label %lean_dec.exit30, label %65

65:                                               ; preds = %64
  tail call void @lean_dec_ref_cold(ptr noundef nonnull %3) #4
  br label %lean_dec.exit30

lean_dec.exit30:                                  ; preds = %65, %64, %62, %lean_dec.exit31
  %66 = ptrtoint ptr %2 to i64
  %67 = and i64 %66, 1
  %.not55 = icmp eq i64 %67, 0
  br i1 %.not55, label %68, label %lean_dec.exit29

68:                                               ; preds = %lean_dec.exit30
  %69 = load i32, ptr %2, align 4, !tbaa !4
  %70 = icmp sgt i32 %69, 1
  br i1 %70, label %71, label %73, !prof !9

71:                                               ; preds = %68
  %72 = add nsw i32 %69, -1
  store i32 %72, ptr %2, align 4, !tbaa !4
  br label %lean_dec.exit29

73:                                               ; preds = %68
  %.not.i40 = icmp eq i32 %69, 0
  br i1 %.not.i40, label %lean_dec.exit29, label %74

74:                                               ; preds = %73
  tail call void @lean_dec_ref_cold(ptr noundef nonnull %2) #4
  br label %lean_dec.exit29

lean_dec.exit29:                                  ; preds = %74, %73, %71, %lean_dec.exit30
  br i1 %.not, label %75, label %lean_dec.exit28

75:                                               ; preds = %lean_dec.exit29
  %76 = load i32, ptr %1, align 4, !tbaa !4
  %77 = icmp sgt i32 %76, 1
  br i1 %77, label %78, label %80, !prof !9

78:                                               ; preds = %75
  %79 = add nsw i32 %76, -1
  store i32 %79, ptr %1, align 4, !tbaa !4
  br label %lean_dec.exit28

80:                                               ; preds = %75
  %.not.i42 = icmp eq i32 %76, 0
  br i1 %.not.i42, label %lean_dec.exit28, label %81

81:                                               ; preds = %80
  tail call void @lean_dec_ref_cold(ptr noundef nonnull %1) #4
  br label %lean_dec.exit28

lean_dec.exit28:                                  ; preds = %81, %80, %78, %lean_dec.exit29
  br i1 %.not50, label %82, label %lean_dec.exit

82:                                               ; preds = %lean_dec.exit28
  %83 = load i32, ptr %0, align 4, !tbaa !4
  %84 = icmp sgt i32 %83, 1
  br i1 %84, label %85, label %87, !prof !9

85:                                               ; preds = %82
  %86 = add nsw i32 %83, -1
  store i32 %86, ptr %0, align 4, !tbaa !4
  br label %lean_dec.exit

87:                                               ; preds = %82
  %.not.i44 = icmp eq i32 %83, 0
  br i1 %.not.i44, label %lean_dec.exit, label %88

88:                                               ; preds = %87
  tail call void @lean_dec_ref_cold(ptr noundef nonnull %0) #4
  br label %lean_dec.exit

lean_dec.exit:                                    ; preds = %88, %87, %85, %lean_dec.exit28
  tail call void @lean_inc_heartbeat() #4
  %89 = tail call noalias ptr @mi_malloc_small(i64 noundef 24) #4
  %90 = icmp eq ptr %89, null
  br i1 %90, label %91, label %lean_alloc_ctor.exit

91:                                               ; preds = %lean_dec.exit
  tail call void @lean_internal_panic_out_of_memory() #5
  unreachable

lean_alloc_ctor.exit:                             ; preds = %lean_dec.exit
  %92 = getelementptr inbounds nuw i8, ptr %89, i64 4
  store i32 1, ptr %89, align 4, !tbaa !4
  store i32 131096, ptr %92, align 4
  %93 = getelementptr inbounds nuw i8, ptr %89, i64 8
  store ptr inttoptr (i64 3 to ptr), ptr %93, align 8, !tbaa !10
  %94 = getelementptr inbounds nuw i8, ptr %89, i64 16
  store ptr %7, ptr %94, align 8, !tbaa !10
  br label %95

95:                                               ; preds = %lean_alloc_ctor.exit, %27
  %.0 = phi ptr [ %28, %27 ], [ %89, %lean_alloc_ctor.exit ]
  ret ptr %.0
}